; Function Attrs: nounwind uwtable
define ptr @l_Lean_Elab_Term_elabWithDeclName(ptr noundef %0, ptr noundef %1, ptr noundef %2, ptr noundef %3, ptr noundef %4, ptr noundef %5, ptr noundef %6, ptr noundef %7, ptr noundef %8) #0 {
  %10 = tail call ptr @l_Lean_Syntax_getArg(ptr noundef %0, ptr noundef nonnull inttoptr (i64 5 to ptr)) #6
  %11 = tail call ptr @l_Lean_Syntax_getId(ptr noundef %10) #6
  %12 = ptrtoint ptr %10 to i64
  %13 = and i64 %12, 1
  %.not = icmp eq i64 %13, 0
  br i1 %.not, label %14, label %lean_dec.exit35

14:                                               ; preds = %9
  %15 = load i32, ptr %10, align 4, !tbaa !8
  %16 = icmp sgt i32 %15, 1
  br i1 %16, label %17, label %19, !prof !15

17:                                               ; preds = %14
  %18 = add nsw i32 %15, -1
  store i32 %18, ptr %10, align 4, !tbaa !8
  br label %lean_dec.exit35

19:                                               ; preds = %14
  %.not.i = icmp eq i32 %15, 0
  br i1 %.not.i, label %lean_dec.exit35, label %20

20:                                               ; preds = %19
  tail call void @lean_dec_ref_cold(ptr noundef nonnull %10) #6
  br label %lean_dec.exit35

lean_dec.exit35:                                  ; preds = %20, %19, %17, %9
  %21 = tail call ptr @l_Lean_Syntax_getArg(ptr noundef %0, ptr noundef nonnull inttoptr (i64 3 to ptr)) #6
  %22 = tail call zeroext i8 @l_Lean_Syntax_isNone(ptr noundef %21) #6
  %23 = ptrtoint ptr %21 to i64
  %24 = and i64 %23, 1
  %.not39 = icmp eq i64 %24, 0
  br i1 %.not39, label %25, label %lean_dec.exit

25:                                               ; preds = %lean_dec.exit35
  %26 = load i32, ptr %21, align 4, !tbaa !8
  %27 = icmp sgt i32 %26, 1
  br i1 %27, label %28, label %30, !prof !15

28:                                               ; preds = %25
  %29 = add nsw i32 %26, -1
  store i32 %29, ptr %21, align 4, !tbaa !8
  br label %lean_dec.exit

30:                                               ; preds = %25
  %.not.i36 = icmp eq i32 %26, 0
  br i1 %.not.i36, label %lean_dec.exit, label %31

31:                                               ; preds = %30
  tail call void @lean_dec_ref_cold(ptr noundef nonnull %21) #6
  br label %lean_dec.exit

lean_dec.exit:                                    ; preds = %31, %30, %28, %lean_dec.exit35
  %32 = icmp eq i8 %22, 0
  br i1 %32, label %33, label %45

33:                                               ; preds = %lean_dec.exit
  %34 = getelementptr inbounds nuw i8, ptr %6, i64 56
  %35 = load ptr, ptr %34, align 8, !tbaa !4
  %36 = ptrtoint ptr %35 to i64
  %37 = and i64 %36, 1
  %.not40 = icmp eq i64 %37, 0
  br i1 %.not40, label %38, label %lean_inc.exit

38:                                               ; preds = %33
  %.val.i = load i32, ptr %35, align 4, !tbaa !8
  %39 = icmp sgt i32 %.val.i, 0
  br i1 %39, label %40, label %42, !prof !15

40:                                               ; preds = %38
  %41 = add nuw i32 %.val.i, 1
  store i32 %41, ptr %35, align 4, !tbaa !8
  br label %lean_inc.exit

42:                                               ; preds = %38
  %.not.i38 = icmp eq i32 %.val.i, 0
  br i1 %.not.i38, label %lean_inc.exit, label %43

43:                                               ; preds = %42
  tail call void @lean_inc_ref_cold(ptr noundef nonnull %35) #6
  br label %lean_inc.exit

lean_inc.exit:                                    ; preds = %43, %42, %40, %33
  %44 = tail call ptr @l_Lean_Name_append(ptr noundef %35, ptr noundef %11) #6
  br label %45

45:                                               ; preds = %lean_dec.exit, %lean_inc.exit
  %.sink = phi ptr [ %44, %lean_inc.exit ], [ %11, %lean_dec.exit ]
  %46 = tail call ptr @l_Lean_Elab_Term_elabWithDeclName___lambda__1(ptr noundef %0, ptr noundef %1, ptr noundef %.sink, ptr noundef %2, ptr noundef %3, ptr noundef %4, ptr noundef %5, ptr noundef %6, ptr noundef %7, ptr noundef %8)
  ret ptr %46
}